Certificate:
    Data:
        Version: 3 (0x2)
        Serial Number: 1 (0x1)
    Signature Algorithm: sha256WithRSAEncryption
        Issuer: C=FR, ST=Radius, L=Somewhere, O=Example Inc./emailAddress=admin@example.org, CN=Example Certificate Authority
        Validity
            Not Before: Sep 26 09:27:52 2018 GMT
            Not After : Nov 25 09:27:52 2018 GMT
        Subject: C=FR, ST=Radius, O=Example Inc., CN=Example Server Certificate/emailAddress=admin@example.org
        Subject Public Key Info:
            Public Key Algorithm: rsaEncryption
                Public-Key: (2048 bit)
                Modulus:
                    00:be:3e:35:88:9f:be:46:39:97:73:a3:5e:91:a7:
                    15:89:10:0b:00:06:c9:bd:b4:87:84:03:5b:0e:e8:
                    04:ea:a2:cb:41:8b:d0:7d:1c:94:2e:c0:c4:5e:01:
                    7f:e6:67:09:da:a2:32:c4:03:10:73:ba:54:89:26:
                    e7:ca:b5:bd:12:35:58:2c:76:69:79:2c:94:a4:c4:
                    0d:19:8f:e3:5b:bb:d4:cf:32:ca:59:a9:2e:6c:1e:
                    8b:8a:42:cc:5b:86:47:2e:6f:04:63:85:fb:65:0d:
                    ed:2f:85:9b:cc:60:44:6b:d7:d3:51:46:62:a7:1d:
                    53:e1:dd:13:4a:78:af:79:7e:6f:ea:ca:10:6a:e0:
                    44:c2:83:d8:11:be:9f:22:fb:ae:43:1d:61:71:85:
                    fe:64:d8:d8:f5:48:cb:fd:7d:bd:02:92:04:a9:06:
                    9f:7f:e2:50:9c:37:02:dc:df:51:23:ee:ea:f9:1e:
                    46:f1:c1:60:1a:5a:7d:15:bd:09:38:56:d1:ef:10:
                    b0:9a:2e:c6:e6:77:c2:61:45:3f:13:e7:15:40:9d:
                    4b:c2:32:9a:72:32:96:65:ae:1f:a9:98:f0:a3:2c:
                    8b:47:a7:a1:c1:7b:e7:a0:e7:26:a7:4e:c0:04:2f:
                    ef:a1:86:24:20:21:f0:8a:41:21:17:b0:62:57:99:
                    44:95
                Exponent: 65537 (0x10001)
        X509v3 extensions:
            X509v3 Extended Key Usage: 
                TLS Web Server Authentication
            X509v3 CRL Distribution Points: 

                Full Name:
                  URI:http://www.example.com/example_ca.crl

    Signature Algorithm: sha256WithRSAEncryption
         10:bf:c9:6f:02:36:30:31:52:f6:5c:e7:65:3c:1f:8c:0e:28:
         97:6c:a3:7d:3d:03:b3:97:29:3a:ed:42:58:02:85:fa:02:72:
         a1:b0:3a:8c:74:15:5a:93:bb:54:e2:ac:f5:89:d5:d6:38:f6:
         fc:c7:bf:00:5f:c5:1a:5c:c7:0e:03:f1:e7:19:30:84:2d:26:
         84:70:71:1f:cc:f3:f8:b6:dd:16:0d:db:1c:e2:44:57:66:61:
         79:14:3b:82:9b:0c:19:73:1f:cd:6c:d9:3b:82:18:b5:c0:d2:
         66:b3:ca:36:7d:87:fe:3a:11:d0:a7:21:73:39:f2:da:c0:aa:
         0d:99:33:cc:1a:8b:ee:c7:b1:e3:3e:f7:de:86:4d:f8:28:88:
         ea:29:c7:7f:53:f9:66:15:87:8e:f4:5a:b1:bd:e9:d8:cb:08:
         55:a1:0c:a9:09:5a:e0:f7:24:f6:31:11:98:15:39:72:55:fc:
         eb:e4:8d:62:c2:cf:c9:54:12:1f:21:46:64:2c:e3:2b:f5:72:
         d0:d8:42:c6:f7:02:8d:bc:43:8d:e6:8d:76:0e:44:f6:4b:17:
         21:86:d5:23:e3:c4:3b:83:ee:47:4c:38:36:9f:d7:33:d4:92:
         75:4f:47:24:0a:02:4a:0a:58:f8:bc:70:87:da:7d:59:b9:16:
         56:6a:ad:45
-----BEGIN CERTIFICATE-----
MIID2jCCAsKgAwIBAgIBATANBgkqhkiG9w0BAQsFADCBkzELMAkGA1UEBhMCRlIx
DzANBgNVBAgMBlJhZGl1czESMBAGA1UEBwwJU29tZXdoZXJlMRUwEwYDVQQKDAxF
eGFtcGxlIEluYy4xIDAeBgkqhkiG9w0BCQEWEWFkbWluQGV4YW1wbGUub3JnMSYw
JAYDVQQDDB1FeGFtcGxlIENlcnRpZmljYXRlIEF1dGhvcml0eTAeFw0xODA5MjYw
OTI3NTJaFw0xODExMjUwOTI3NTJaMHwxCzAJBgNVBAYTAkZSMQ8wDQYDVQQIDAZS
YWRpdXMxFTATBgNVBAoMDEV4YW1wbGUgSW5jLjEjMCEGA1UEAwwaRXhhbXBsZSBT
ZXJ2ZXIgQ2VydGlmaWNhdGUxIDAeBgkqhkiG9w0BCQEWEWFkbWluQGV4YW1wbGUu
b3JnMIIBIjANBgkqhkiG9w0BAQEFAAOCAQ8AMIIBCgKCAQEAvj41iJ++RjmXc6Ne
kacViRALAAbJvbSHhANbDugE6qLLQYvQfRyULsDEXgF/5mcJ2qIyxAMQc7pUiSbn
yrW9EjVYLHZpeSyUpMQNGY/jW7vUzzLKWakubB6LikLMW4ZHLm8EY4X7ZQ3tL4Wb
zGBEa9fTUUZipx1T4d0TSniveX5v6soQauBEwoPYEb6fIvuuQx1hcYX+ZNjY9UjL
/X29ApIEqQaff+JQnDcC3N9RI+7q+R5G8cFgGlp9Fb0JOFbR7xCwmi7G5nfCYUU/
E+cVQJ1LwjKacjKWZa4fqZjwoyyLR6ehwXvnoOcmp07ABC/voYYkICHwikEhF7Bi
V5lElQIDAQABo08wTTATBgNVHSUEDDAKBggrBgEFBQcDATA2BgNVHR8ELzAtMCug
KaAnhiVodHRwOi8vd3d3LmV4YW1wbGUuY29tL2V4YW1wbGVfY2EuY3JsMA0GCSqG
SIb3DQEBCwUAA4IBAQAQv8lvAjYwMVL2XOdlPB+MDiiXbKN9PQOzlyk67UJYAoX6
AnKhsDqMdBVak7tU4qz1idXWOPb8x78AX8UaXMcOA/HnGTCELSaEcHEfzPP4tt0W
Ddsc4kRXZmF5FDuCmwwZcx/NbNk7ghi1wNJms8o2fYf+OhHQpyFzOfLawKoNmTPM
Govux7HjPvfehk34KIjqKcd/U/lmFYeO9FqxvenYywhVoQypCVrg9yT2MRGYFTly
Vfzr5I1iws/JVBIfIUZkLOMr9XLQ2ELG9wKNvEON5o12DkT2SxchhtUj48Q7g+5H
TDg2n9cz1JJ1T0ckCgJKClj4vHCH2n1ZuRZWaq1F
-----END CERTIFICATE-----
