Certificate:
    Data:
        Version: 3 (0x2)
        Serial Number: 2 (0x2)
    Signature Algorithm: sha256WithRSAEncryption
        Issuer: C=FR, ST=Radius, L=Somewhere, O=Example Inc./emailAddress=admin@example.org, CN=Example Certificate Authority
        Validity
            Not Before: Sep 26 09:27:52 2018 GMT
            Not After : Nov 25 09:27:52 2018 GMT
        Subject: C=FR, ST=Radius, O=Example Inc., CN=user@example.org/emailAddress=user@example.org
        Subject Public Key Info:
            Public Key Algorithm: rsaEncryption
                Public-Key: (2048 bit)
                Modulus:
                    00:98:f9:7a:b0:e6:bc:c8:86:54:8b:95:81:0a:7a:
                    ec:e0:7e:bd:2f:ac:34:e0:6e:81:ed:90:c5:32:5f:
                    ac:2c:5e:a0:d0:92:d8:34:03:f9:22:f0:ec:62:2f:
                    b5:a3:eb:48:fd:15:7d:c8:01:e3:61:cd:c6:b1:6c:
                    d8:fd:b9:81:10:b0:95:25:c3:50:b6:1a:92:4e:e6:
                    ea:87:ab:9b:90:50:01:91:f1:de:ca:66:92:85:c8:
                    cc:47:2c:1b:61:6c:1e:31:e4:0a:cc:77:c0:d5:77:
                    1a:71:85:78:84:a3:39:67:d7:21:09:d6:65:4b:50:
                    0d:1e:39:b3:00:05:6f:f5:b7:be:76:b8:e3:d9:a5:
                    f4:47:8a:58:6b:02:93:0b:98:56:09:af:16:06:9e:
                    54:4d:83:7e:98:9e:ef:f2:27:7d:81:46:27:87:8e:
                    54:13:8c:13:aa:17:1b:b3:dd:2f:0d:7e:b8:1e:7a:
                    e4:01:e2:f9:2b:3c:6a:ea:dc:2d:0d:56:d9:d1:e9:
                    66:10:97:50:b1:66:bf:82:e5:ca:16:7e:24:a9:52:
                    4c:5a:72:ef:ea:24:95:d1:2c:f5:ed:13:62:b8:a3:
                    bf:83:aa:76:b0:8b:7d:8d:71:92:d6:b5:e2:ae:cb:
                    58:7c:16:f0:81:96:09:a8:bc:2e:5c:79:86:24:cf:
                    14:91
                Exponent: 65537 (0x10001)
        X509v3 extensions:
            X509v3 Extended Key Usage: 
                TLS Web Client Authentication
            X509v3 CRL Distribution Points: 

                Full Name:
                  URI:http://www.example.com/example_ca.crl

    Signature Algorithm: sha256WithRSAEncryption
         b0:de:65:26:ad:b5:14:d3:c0:5c:06:db:55:af:39:7b:4e:e3:
         3a:7e:ca:0f:ec:12:2e:c3:8b:8a:cd:b0:b0:1c:dd:ba:49:cc:
         8e:c4:8d:55:fd:26:6f:eb:20:44:37:10:f4:48:6a:35:e3:01:
         59:b9:e3:8f:4f:15:f5:fb:8a:11:d5:d0:63:51:60:6f:22:8f:
         72:63:32:d0:ac:da:0d:ff:60:9d:37:1a:e3:37:a5:04:22:44:
         9f:41:5e:a1:19:65:38:c6:90:05:63:21:5d:8d:42:c9:c6:7f:
         38:9c:21:20:00:e0:58:ff:51:64:eb:a3:db:57:ee:2d:b8:03:
         2f:4b:78:c3:a2:0f:87:e8:b2:89:7a:d7:a1:4b:d9:4c:78:67:
         1d:e1:e7:5a:ed:76:0e:d8:ff:c4:69:14:4b:e9:a8:81:aa:1d:
         6f:ef:b6:5e:bb:75:e1:e2:3f:0b:4f:40:d2:4f:89:3e:78:fb:
         41:fd:77:20:bc:cc:58:20:1d:26:d3:d9:81:05:50:56:0a:4d:
         b8:99:f1:12:e5:d8:b8:b0:da:08:86:6c:d9:1c:13:44:3e:35:
         ed:4d:80:28:71:3f:37:6e:a3:ac:e4:b8:79:16:73:db:f4:89:
         52:4b:a6:9c:c6:58:29:26:ec:64:d1:d2:e2:6a:95:2b:88:5c:
         66:c0:6d:9d
-----BEGIN CERTIFICATE-----
MIIDzzCCAregAwIBAgIBAjANBgkqhkiG9w0BAQsFADCBkzELMAkGA1UEBhMCRlIx
DzANBgNVBAgMBlJhZGl1czESMBAGA1UEBwwJU29tZXdoZXJlMRUwEwYDVQQKDAxF
eGFtcGxlIEluYy4xIDAeBgkqhkiG9w0BCQEWEWFkbWluQGV4YW1wbGUub3JnMSYw
JAYDVQQDDB1FeGFtcGxlIENlcnRpZmljYXRlIEF1dGhvcml0eTAeFw0xODA5MjYw
OTI3NTJaFw0xODExMjUwOTI3NTJaMHExCzAJBgNVBAYTAkZSMQ8wDQYDVQQIDAZS
YWRpdXMxFTATBgNVBAoMDEV4YW1wbGUgSW5jLjEZMBcGA1UEAwwQdXNlckBleGFt
cGxlLm9yZzEfMB0GCSqGSIb3DQEJARYQdXNlckBleGFtcGxlLm9yZzCCASIwDQYJ
KoZIhvcNAQEBBQADggEPADCCAQoCggEBAJj5erDmvMiGVIuVgQp67OB+vS+sNOBu
ge2QxTJfrCxeoNCS2DQD+SLw7GIvtaPrSP0VfcgB42HNxrFs2P25gRCwlSXDULYa
kk7m6oerm5BQAZHx3spmkoXIzEcsG2FsHjHkCsx3wNV3GnGFeISjOWfXIQnWZUtQ
DR45swAFb/W3vna449ml9EeKWGsCkwuYVgmvFgaeVE2Dfpie7/InfYFGJ4eOVBOM
E6oXG7PdLw1+uB565AHi+Ss8aurcLQ1W2dHpZhCXULFmv4LlyhZ+JKlSTFpy7+ok
ldEs9e0TYrijv4OqdrCLfY1xkta14q7LWHwW8IGWCai8Llx5hiTPFJECAwEAAaNP
ME0wEwYDVR0lBAwwCgYIKwYBBQUHAwIwNgYDVR0fBC8wLTAroCmgJ4YlaHR0cDov
L3d3dy5leGFtcGxlLmNvbS9leGFtcGxlX2NhLmNybDANBgkqhkiG9w0BAQsFAAOC
AQEAsN5lJq21FNPAXAbbVa85e07jOn7KD+wSLsOLis2wsBzduknMjsSNVf0mb+sg
RDcQ9EhqNeMBWbnjj08V9fuKEdXQY1FgbyKPcmMy0KzaDf9gnTca4zelBCJEn0Fe
oRllOMaQBWMhXY1CycZ/OJwhIADgWP9RZOuj21fuLbgDL0t4w6IPh+iyiXrXoUvZ
THhnHeHnWu12Dtj/xGkUS+mogaodb++2Xrt14eI/C09A0k+JPnj7Qf13ILzMWCAd
JtPZgQVQVgpNuJnxEuXYuLDaCIZs2RwTRD417U2AKHE/N26jrOS4eRZz2/SJUkum
nMZYKSbsZNHS4mqVK4hcZsBtnQ==
-----END CERTIFICATE-----
